target datalayout = "e-m:e-p270:32:32-p271:32:32-p272:64:64-i64:64-f80:128-n8:16:32:64-S128"
target triple = "x86_64-pc-linux-gnu"

%struct.book = type { i32, [26 x i8] }

@.str = private unnamed_addr constant [3 x i8] c"%d\00", align 1
@.str.1 = private unnamed_addr constant [6 x i8] c"%d %s\00", align 1
@a = common dso_local global [999 x %struct.book] zeroinitializer, align 16
@.str.2 = private unnamed_addr constant [4 x i8] c"%c\0A\00", align 1
@.str.3 = private unnamed_addr constant [4 x i8] c"%d\0A\00", align 1

; Function Attrs: noinline nounwind uwtable
define dso_local i32 @main() #0 {
  %1 = alloca i32, align 4
  %2 = alloca i32, align 4
  %3 = alloca i32, align 4
  %4 = alloca i32, align 4
  %5 = alloca i32, align 4
  %6 = alloca i32, align 4
  %7 = alloca i8, align 1
  %8 = alloca [26 x i32], align 16
  %9 = alloca i32, align 4
  %10 = alloca i32, align 4
  store i32 0, i32* %1, align 4
  store i32 0, i32* %6, align 4
  %11 = call i32 (i8*, ...) @__isoc99_scanf(i8* getelementptr inbounds ([3 x i8], [3 x i8]* @.str, i64 0, i64 0), i32* %2)
  store i32 0, i32* %3, align 4
  br label %12

12:                                               ; preds = %27, %0
  %13 = load i32, i32* %3, align 4
  %14 = load i32, i32* %2, align 4
  %15 = icmp slt i32 %13, %14
  br i1 %15, label %16, label %30

16:                                               ; preds = %12
  %17 = load i32, i32* %3, align 4
  %18 = sext i32 %17 to i64
  %19 = getelementptr inbounds [999 x %struct.book], [999 x %struct.book]* @a, i64 0, i64 %18
  %20 = getelementptr inbounds %struct.book, %struct.book* %19, i32 0, i32 0
  %21 = load i32, i32* %3, align 4
  %22 = sext i32 %21 to i64
  %23 = getelementptr inbounds [999 x %struct.book], [999 x %struct.book]* @a, i64 0, i64 %22
  %24 = getelementptr inbounds %struct.book, %struct.book* %23, i32 0, i32 1
  %25 = getelementptr inbounds [26 x i8], [26 x i8]* %24, i64 0, i64 0
  %26 = call i32 (i8*, ...) @__isoc99_scanf(i8* getelementptr inbounds ([6 x i8], [6 x i8]* @.str.1, i64 0, i64 0), i32* %20, i8* %25)
  br label %27

27:                                               ; preds = %16
  %28 = load i32, i32* %3, align 4
  %29 = add nsw i32 %28, 1
  store i32 %29, i32* %3, align 4
  br label %12

30:                                               ; preds = %12
  %31 = bitcast [26 x i32]* %8 to i8*
  call void @llvm.memset.p0i8.i64(i8* align 16 %31, i8 0, i64 104, i1 false)
  store i32 0, i32* %3, align 4
  br label %32

32:                                               ; preds = %68, %30
  %33 = load i32, i32* %3, align 4
  %34 = load i32, i32* %2, align 4
  %35 = icmp slt i32 %33, %34
  br i1 %35, label %36, label %71

36:                                               ; preds = %32
  %37 = load i32, i32* %3, align 4
  %38 = sext i32 %37 to i64
  %39 = getelementptr inbounds [999 x %struct.book], [999 x %struct.book]* @a, i64 0, i64 %38
  %40 = getelementptr inbounds %struct.book, %struct.book* %39, i32 0, i32 1
  %41 = getelementptr inbounds [26 x i8], [26 x i8]* %40, i64 0, i64 0
  %42 = call i64 @strlen(i8* %41) #4
  %43 = trunc i64 %42 to i32
  store i32 %43, i32* %5, align 4
  store i32 0, i32* %4, align 4
  br label %44

44:                                               ; preds = %64, %36
  %45 = load i32, i32* %4, align 4
  %46 = load i32, i32* %5, align 4
  %47 = icmp slt i32 %45, %46
  br i1 %47, label %48, label %67

48:                                               ; preds = %44
  %49 = load i32, i32* %3, align 4
  %50 = sext i32 %49 to i64
  %51 = getelementptr inbounds [999 x %struct.book], [999 x %struct.book]* @a, i64 0, i64 %50
  %52 = getelementptr inbounds %struct.book, %struct.book* %51, i32 0, i32 1
  %53 = load i32, i32* %4, align 4
  %54 = sext i32 %53 to i64
  %55 = getelementptr inbounds [26 x i8], [26 x i8]* %52, i64 0, i64 %54
  %56 = load i8, i8* %55, align 1
  store i8 %56, i8* %7, align 1
  %57 = load i8, i8* %7, align 1
  %58 = sext i8 %57 to i32
  %59 = sub nsw i32 %58, 65
  %60 = sext i32 %59 to i64
  %61 = getelementptr inbounds [26 x i32], [26 x i32]* %8, i64 0, i64 %60
  %62 = load i32, i32* %61, align 4
  %63 = add nsw i32 %62, 1
  store i32 %63, i32* %61, align 4
  br label %64

64:                                               ; preds = %48
  %65 = load i32, i32* %4, align 4
  %66 = add nsw i32 %65, 1
  store i32 %66, i32* %4, align 4
  br label %44

67:                                               ; preds = %44
  br label %68

68:                                               ; preds = %67
  %69 = load i32, i32* %3, align 4
  %70 = add nsw i32 %69, 1
  store i32 %70, i32* %3, align 4
  br label %32

71:                                               ; preds = %32
  %72 = getelementptr inbounds [26 x i32], [26 x i32]* %8, i64 0, i64 0
  %73 = load i32, i32* %72, align 16
  store i32 %73, i32* %9, align 4
  store i32 0, i32* %10, align 4
  store i32 0, i32* %3, align 4
  br label %74

74:                                               ; preds = %91, %71
  %75 = load i32, i32* %3, align 4
  %76 = icmp slt i32 %75, 26
  br i1 %76, label %77, label %94

77:                                               ; preds = %74
  %78 = load i32, i32* %3, align 4
  %79 = sext i32 %78 to i64
  %80 = getelementptr inbounds [26 x i32], [26 x i32]* %8, i64 0, i64 %79
  %81 = load i32, i32* %80, align 4
  %82 = load i32, i32* %9, align 4
  %83 = icmp sgt i32 %81, %82
  br i1 %83, label %84, label %90

84:                                               ; preds = %77
  %85 = load i32, i32* %3, align 4
  %86 = sext i32 %85 to i64
  %87 = getelementptr inbounds [26 x i32], [26 x i32]* %8, i64 0, i64 %86
  %88 = load i32, i32* %87, align 4
  store i32 %88, i32* %9, align 4
  %89 = load i32, i32* %3, align 4
  store i32 %89, i32* %10, align 4
  br label %90

90:                                               ; preds = %84, %77
  br label %91

91:                                               ; preds = %90
  %92 = load i32, i32* %3, align 4
  %93 = add nsw i32 %92, 1
  store i32 %93, i32* %3, align 4
  br label %74

94:                                               ; preds = %74
  %95 = load i32, i32* %10, align 4
  %96 = add nsw i32 %95, 65
  %97 = call i32 (i8*, ...) @printf(i8* getelementptr inbounds ([4 x i8], [4 x i8]* @.str.2, i64 0, i64 0), i32 %96)
  %98 = load i32, i32* %10, align 4
  %99 = sext i32 %98 to i64
  %100 = getelementptr inbounds [26 x i32], [26 x i32]* %8, i64 0, i64 %99
  %101 = load i32, i32* %100, align 4
  %102 = call i32 (i8*, ...) @printf(i8* getelementptr inbounds ([4 x i8], [4 x i8]* @.str.3, i64 0, i64 0), i32 %101)
  store i32 0, i32* %3, align 4
  br label %103

103:                                              ; preds = %144, %94
  %104 = load i32, i32* %3, align 4
  %105 = load i32, i32* %2, align 4
  %106 = icmp slt i32 %104, %105
  br i1 %106, label %107, label %147

107:                                              ; preds = %103
  %108 = load i32, i32* %3, align 4
  %109 = sext i32 %108 to i64
  %110 = getelementptr inbounds [999 x %struct.book], [999 x %struct.book]* @a, i64 0, i64 %109
  %111 = getelementptr inbounds %struct.book, %struct.book* %110, i32 0, i32 1
  %112 = getelementptr inbounds [26 x i8], [26 x i8]* %111, i64 0, i64 0
  %113 = call i64 @strlen(i8* %112) #4
  %114 = trunc i64 %113 to i32
  store i32 %114, i32* %5, align 4
  store i32 0, i32* %4, align 4
  br label %115

115:                                              ; preds = %140, %107
  %116 = load i32, i32* %4, align 4
  %117 = load i32, i32* %5, align 4
  %118 = icmp slt i32 %116, %117
  br i1 %118, label %119, label %143

119:                                              ; preds = %115
  %120 = load i32, i32* %3, align 4
  %121 = sext i32 %120 to i64
  %122 = getelementptr inbounds [999 x %struct.book], [999 x %struct.book]* @a, i64 0, i64 %121
  %123 = getelementptr inbounds %struct.book, %struct.book* %122, i32 0, i32 1
  %124 = load i32, i32* %4, align 4
  %125 = sext i32 %124 to i64
  %126 = getelementptr inbounds [26 x i8], [26 x i8]* %123, i64 0, i64 %125
  %127 = load i8, i8* %126, align 1
  %128 = sext i8 %127 to i32
  %129 = load i32, i32* %10, align 4
  %130 = add nsw i32 %129, 65
  %131 = icmp eq i32 %128, %130
  br i1 %131, label %132, label %139

132:                                              ; preds = %119
  %133 = load i32, i32* %3, align 4
  %134 = sext i32 %133 to i64
  %135 = getelementptr inbounds [999 x %struct.book], [999 x %struct.book]* @a, i64 0, i64 %134
  %136 = getelementptr inbounds %struct.book, %struct.book* %135, i32 0, i32 0
  %137 = load i32, i32* %136, align 16
  %138 = call i32 (i8*, ...) @printf(i8* getelementptr inbounds ([4 x i8], [4 x i8]* @.str.3, i64 0, i64 0), i32 %137)
  br label %139

139:                                              ; preds = %132, %119
  br label %140

140:                                              ; preds = %139
  %141 = load i32, i32* %4, align 4
  %142 = add nsw i32 %141, 1
  store i32 %142, i32* %4, align 4
  br label %115

143:                                              ; preds = %115
  br label %144

144:                                              ; preds = %143
  %145 = load i32, i32* %3, align 4
  %146 = add nsw i32 %145, 1
  store i32 %146, i32* %3, align 4
  br label %103

147:                                              ; preds = %103
  ret i32 0
}